; Function Attrs: mustprogress uwtable
define void @_ZN7Imf_3_218TiledRgbaInputFile8readTileEiii(ptr nocapture noundef nonnull readonly align 8 dereferenceable(56) %this, i32 noundef %dx, i32 noundef %dy, i32 noundef %l) local_unnamed_addr #3 align 2 {
entry:
  %_fromYa = getelementptr inbounds i8, ptr %this, i64 16
  %0 = load ptr, ptr %_fromYa, align 8
  %tobool.not = icmp eq ptr %0, null
  br i1 %tobool.not, label %if.else, label %if.then

if.then:                                          ; preds = %entry
  tail call void @_ZN7Imf_3_218TiledRgbaInputFile6FromYa8readTileEiiii(ptr noundef nonnull align 8 dereferenceable(80) %0, i32 noundef %dx, i32 noundef %dy, i32 noundef %l, i32 noundef %l)
  br label %if.end

if.else:                                          ; preds = %entry
  %_inputFile = getelementptr inbounds i8, ptr %this, i64 8
  %1 = load ptr, ptr %_inputFile, align 8
  tail call void @_ZN7Imf_3_214TiledInputFile8readTileEiii(ptr noundef nonnull align 8 dereferenceable(16) %1, i32 noundef %dx, i32 noundef %dy, i32 noundef %l)
  br label %if.end

if.end:                                           ; preds = %if.else, %if.then
  ret void
}